target datalayout = "e-m:e-p270:32:32-p271:32:32-p272:64:64-i64:64-i128:128-f80:128-n8:16:32:64-S128"
target triple = "x86_64-pc-linux-gnu"

@.str.7 = private unnamed_addr constant [52 x i8] c"cli_unescape: Unable to allocate memory for string\0A\00", align 1

; Function Attrs: nounwind uwtable
define internal i64 @output_utf8(i16 noundef zeroext %0, ptr noundef %1) #0 {
  %3 = alloca i64, align 8
  %4 = alloca i16, align 2
  %5 = alloca ptr, align 8
  store i16 %0, ptr %4, align 2
  store ptr %1, ptr %5, align 8
  %6 = load i16, ptr %4, align 2
  %7 = icmp ne i16 %6, 0
  br i1 %7, label %10, label %8

8:                                                ; preds = %2
  %9 = load ptr, ptr %5, align 8
  store i8 1, ptr %9, align 1
  store i64 1, ptr %3, align 8
  br label %60

10:                                               ; preds = %2
  %11 = load i16, ptr %4, align 2
  %12 = zext i16 %11 to i32
  %13 = icmp slt i32 %12, 128
  br i1 %13, label %14, label %20

14:                                               ; preds = %10
  %15 = load i16, ptr %4, align 2
  %16 = zext i16 %15 to i32
  %17 = and i32 %16, 255
  %18 = trunc i32 %17 to i8
  %19 = load ptr, ptr %5, align 8
  store i8 %18, ptr %19, align 1
  store i64 1, ptr %3, align 8
  br label %60

20:                                               ; preds = %10
  %21 = load i16, ptr %4, align 2
  %22 = zext i16 %21 to i32
  %23 = icmp slt i32 %22, 2048
  br i1 %23, label %24, label %38

24:                                               ; preds = %20
  %25 = load i16, ptr %4, align 2
  %26 = zext i16 %25 to i32
  %27 = ashr i32 %26, 6
  %28 = or i32 192, %27
  %29 = trunc i32 %28 to i8
  %30 = load ptr, ptr %5, align 8
  %31 = getelementptr inbounds i8, ptr %30, i32 1
  store ptr %31, ptr %5, align 8
  store i8 %29, ptr %30, align 1
  %32 = load i16, ptr %4, align 2
  %33 = zext i16 %32 to i32
  %34 = and i32 %33, 63
  %35 = or i32 128, %34
  %36 = trunc i32 %35 to i8
  %37 = load ptr, ptr %5, align 8
  store i8 %36, ptr %37, align 1
  store i64 2, ptr %3, align 8
  br label %60

38:                                               ; preds = %20
  %39 = load i16, ptr %4, align 2
  %40 = zext i16 %39 to i32
  %41 = ashr i32 %40, 12
  %42 = or i32 224, %41
  %43 = trunc i32 %42 to i8
  %44 = load ptr, ptr %5, align 8
  %45 = getelementptr inbounds i8, ptr %44, i32 1
  store ptr %45, ptr %5, align 8
  store i8 %43, ptr %44, align 1
  %46 = load i16, ptr %4, align 2
  %47 = zext i16 %46 to i32
  %48 = ashr i32 %47, 6
  %49 = and i32 %48, 63
  %50 = or i32 128, %49
  %51 = trunc i32 %50 to i8
  %52 = load ptr, ptr %5, align 8
  %53 = getelementptr inbounds i8, ptr %52, i32 1
  store ptr %53, ptr %5, align 8
  store i8 %51, ptr %52, align 1
  %54 = load i16, ptr %4, align 2
  %55 = zext i16 %54 to i32
  %56 = and i32 %55, 63
  %57 = or i32 128, %56
  %58 = trunc i32 %57 to i8
  %59 = load ptr, ptr %5, align 8
  store i8 %58, ptr %59, align 1
  store i64 3, ptr %3, align 8
  br label %60

60:                                               ; preds = %38, %24, %14, %8
  %61 = load i64, ptr %3, align 8
  ret i64 %61
}

; Function Attrs: nounwind uwtable
define internal i32 @cli_hex2int(i8 noundef signext %0) #0 {
  %2 = alloca i8, align 1
  store i8 %0, ptr %2, align 1
  %3 = load i8, ptr %2, align 1
  %4 = zext i8 %3 to i64
  %5 = getelementptr inbounds [256 x i32], ptr @hex_chars, i64 0, i64 %4
  %6 = load i32, ptr %5, align 4
  ret i32 %6
}

; Function Attrs: nounwind uwtable
define ptr @cli_unescape(ptr noundef %0) #0 {
  %2 = alloca ptr, align 8
  %3 = alloca ptr, align 8
  %4 = alloca ptr, align 8
  %5 = alloca i64, align 8
  %6 = alloca i64, align 8
  %7 = alloca i64, align 8
  %8 = alloca i8, align 1
  %9 = alloca i16, align 2
  store ptr %0, ptr %3, align 8
  store i64 0, ptr %6, align 8
  %10 = load ptr, ptr %3, align 8
  %11 = call i64 @strlen(ptr noundef %10) #7
  store i64 %11, ptr %7, align 8
  %12 = load i64, ptr %7, align 8
  %13 = add i64 %12, 1
  %14 = call ptr @cli_max_malloc(i64 noundef %13)
  store ptr %14, ptr %4, align 8
  %15 = load ptr, ptr %4, align 8
  %16 = icmp ne ptr %15, null
  br i1 %16, label %18, label %17

17:                                               ; preds = %1
  call void (ptr, ...) @cli_errmsg(ptr noundef @.str.7)
  store ptr null, ptr %2, align 8
  br label %269

18:                                               ; preds = %1
  store i64 0, ptr %5, align 8
  br label %19

19:                                               ; preds = %257, %18
  %20 = load i64, ptr %5, align 8
  %21 = load i64, ptr %7, align 8
  %22 = icmp ult i64 %20, %21
  br i1 %22, label %23, label %260

23:                                               ; preds = %19
  %24 = load ptr, ptr %3, align 8
  %25 = load i64, ptr %5, align 8
  %26 = getelementptr inbounds i8, ptr %24, i64 %25
  %27 = load i8, ptr %26, align 1
  store i8 %27, ptr %8, align 1
  %28 = load ptr, ptr %3, align 8
  %29 = load i64, ptr %5, align 8
  %30 = getelementptr inbounds i8, ptr %28, i64 %29
  %31 = load i8, ptr %30, align 1
  %32 = sext i8 %31 to i32
  %33 = icmp eq i32 %32, 37
  br i1 %33, label %34, label %247

34:                                               ; preds = %23
  %35 = load i64, ptr %5, align 8
  %36 = add i64 %35, 5
  %37 = load i64, ptr %7, align 8
  %38 = icmp uge i64 %36, %37
  br i1 %38, label %107, label %39

39:                                               ; preds = %34
  %40 = load ptr, ptr %3, align 8
  %41 = load i64, ptr %5, align 8
  %42 = add i64 %41, 1
  %43 = getelementptr inbounds i8, ptr %40, i64 %42
  %44 = load i8, ptr %43, align 1
  %45 = sext i8 %44 to i32
  %46 = icmp ne i32 %45, 117
  br i1 %46, label %107, label %47

47:                                               ; preds = %39
  %48 = call ptr @__ctype_b_loc() #10
  %49 = load ptr, ptr %48, align 8
  %50 = load ptr, ptr %3, align 8
  %51 = load i64, ptr %5, align 8
  %52 = add i64 %51, 2
  %53 = getelementptr inbounds i8, ptr %50, i64 %52
  %54 = load i8, ptr %53, align 1
  %55 = sext i8 %54 to i32
  %56 = sext i32 %55 to i64
  %57 = getelementptr inbounds i16, ptr %49, i64 %56
  %58 = load i16, ptr %57, align 2
  %59 = zext i16 %58 to i32
  %60 = and i32 %59, 4096
  %61 = icmp ne i32 %60, 0
  br i1 %61, label %62, label %107

62:                                               ; preds = %47
  %63 = call ptr @__ctype_b_loc() #10
  %64 = load ptr, ptr %63, align 8
  %65 = load ptr, ptr %3, align 8
  %66 = load i64, ptr %5, align 8
  %67 = add i64 %66, 3
  %68 = getelementptr inbounds i8, ptr %65, i64 %67
  %69 = load i8, ptr %68, align 1
  %70 = sext i8 %69 to i32
  %71 = sext i32 %70 to i64
  %72 = getelementptr inbounds i16, ptr %64, i64 %71
  %73 = load i16, ptr %72, align 2
  %74 = zext i16 %73 to i32
  %75 = and i32 %74, 4096
  %76 = icmp ne i32 %75, 0
  br i1 %76, label %77, label %107

77:                                               ; preds = %62
  %78 = call ptr @__ctype_b_loc() #10
  %79 = load ptr, ptr %78, align 8
  %80 = load ptr, ptr %3, align 8
  %81 = load i64, ptr %5, align 8
  %82 = add i64 %81, 4
  %83 = getelementptr inbounds i8, ptr %80, i64 %82
  %84 = load i8, ptr %83, align 1
  %85 = sext i8 %84 to i32
  %86 = sext i32 %85 to i64
  %87 = getelementptr inbounds i16, ptr %79, i64 %86
  %88 = load i16, ptr %87, align 2
  %89 = zext i16 %88 to i32
  %90 = and i32 %89, 4096
  %91 = icmp ne i32 %90, 0
  br i1 %91, label %92, label %107

92:                                               ; preds = %77
  %93 = call ptr @__ctype_b_loc() #10
  %94 = load ptr, ptr %93, align 8
  %95 = load ptr, ptr %3, align 8
  %96 = load i64, ptr %5, align 8
  %97 = add i64 %96, 5
  %98 = getelementptr inbounds i8, ptr %95, i64 %97
  %99 = load i8, ptr %98, align 1
  %100 = sext i8 %99 to i32
  %101 = sext i32 %100 to i64
  %102 = getelementptr inbounds i16, ptr %94, i64 %101
  %103 = load i16, ptr %102, align 2
  %104 = zext i16 %103 to i32
  %105 = and i32 %104, 4096
  %106 = icmp ne i32 %105, 0
  br i1 %106, label %172, label %107

107:                                              ; preds = %92, %77, %62, %47, %39, %34
  %108 = load i64, ptr %5, align 8
  %109 = add i64 %108, 2
  %110 = load i64, ptr %7, align 8
  %111 = icmp ult i64 %109, %110
  br i1 %111, label %112, label %171

112:                                              ; preds = %107
  %113 = call ptr @__ctype_b_loc() #10
  %114 = load ptr, ptr %113, align 8
  %115 = load ptr, ptr %3, align 8
  %116 = load i64, ptr %5, align 8
  %117 = add i64 %116, 1
  %118 = getelementptr inbounds i8, ptr %115, i64 %117
  %119 = load i8, ptr %118, align 1
  %120 = sext i8 %119 to i32
  %121 = sext i32 %120 to i64
  %122 = getelementptr inbounds i16, ptr %114, i64 %121
  %123 = load i16, ptr %122, align 2
  %124 = zext i16 %123 to i32
  %125 = and i32 %124, 4096
  %126 = icmp ne i32 %125, 0
  br i1 %126, label %127, label %171

127:                                              ; preds = %112
  %128 = call ptr @__ctype_b_loc() #10
  %129 = load ptr, ptr %128, align 8
  %130 = load ptr, ptr %3, align 8
  %131 = load i64, ptr %5, align 8
  %132 = add i64 %131, 2
  %133 = getelementptr inbounds i8, ptr %130, i64 %132
  %134 = load i8, ptr %133, align 1
  %135 = sext i8 %134 to i32
  %136 = sext i32 %135 to i64
  %137 = getelementptr inbounds i16, ptr %129, i64 %136
  %138 = load i16, ptr %137, align 2
  %139 = zext i16 %138 to i32
  %140 = and i32 %139, 4096
  %141 = icmp ne i32 %140, 0
  br i1 %141, label %142, label %171

142:                                              ; preds = %127
  %143 = load ptr, ptr %3, align 8
  %144 = load i64, ptr %5, align 8
  %145 = add i64 %144, 1
  %146 = getelementptr inbounds i8, ptr %143, i64 %145
  %147 = load i8, ptr %146, align 1
  %148 = call i32 @cli_hex2int(i8 noundef signext %147)
  %149 = icmp slt i32 %148, 0
  br i1 %149, label %150, label %151

150:                                              ; preds = %142
  br label %158

151:                                              ; preds = %142
  %152 = load ptr, ptr %3, align 8
  %153 = load i64, ptr %5, align 8
  %154 = add i64 %153, 1
  %155 = getelementptr inbounds i8, ptr %152, i64 %154
  %156 = load i8, ptr %155, align 1
  %157 = call i32 @cli_hex2int(i8 noundef signext %156)
  br label %158

158:                                              ; preds = %151, %150
  %159 = phi i32 [ 0, %150 ], [ %157, %151 ]
  %160 = shl i32 %159, 4
  %161 = load ptr, ptr %3, align 8
  %162 = load i64, ptr %5, align 8
  %163 = add i64 %162, 2
  %164 = getelementptr inbounds i8, ptr %161, i64 %163
  %165 = load i8, ptr %164, align 1
  %166 = call i32 @cli_hex2int(i8 noundef signext %165)
  %167 = or i32 %160, %166
  %168 = trunc i32 %167 to i8
  store i8 %168, ptr %8, align 1
  %169 = load i64, ptr %5, align 8
  %170 = add i64 %169, 2
  store i64 %170, ptr %5, align 8
  br label %171

171:                                              ; preds = %158, %127, %112, %107
  br label %246

172:                                              ; preds = %92
  %173 = load ptr, ptr %3, align 8
  %174 = load i64, ptr %5, align 8
  %175 = add i64 %174, 2
  %176 = getelementptr inbounds i8, ptr %173, i64 %175
  %177 = load i8, ptr %176, align 1
  %178 = call i32 @cli_hex2int(i8 noundef signext %177)
  %179 = icmp slt i32 %178, 0
  br i1 %179, label %180, label %181

180:                                              ; preds = %172
  br label %188

181:                                              ; preds = %172
  %182 = load ptr, ptr %3, align 8
  %183 = load i64, ptr %5, align 8
  %184 = add i64 %183, 2
  %185 = getelementptr inbounds i8, ptr %182, i64 %184
  %186 = load i8, ptr %185, align 1
  %187 = call i32 @cli_hex2int(i8 noundef signext %186)
  br label %188

188:                                              ; preds = %181, %180
  %189 = phi i32 [ 0, %180 ], [ %187, %181 ]
  %190 = shl i32 %189, 12
  %191 = load ptr, ptr %3, align 8
  %192 = load i64, ptr %5, align 8
  %193 = add i64 %192, 3
  %194 = getelementptr inbounds i8, ptr %191, i64 %193
  %195 = load i8, ptr %194, align 1
  %196 = call i32 @cli_hex2int(i8 noundef signext %195)
  %197 = icmp slt i32 %196, 0
  br i1 %197, label %198, label %199

198:                                              ; preds = %188
  br label %206

199:                                              ; preds = %188
  %200 = load ptr, ptr %3, align 8
  %201 = load i64, ptr %5, align 8
  %202 = add i64 %201, 3
  %203 = getelementptr inbounds i8, ptr %200, i64 %202
  %204 = load i8, ptr %203, align 1
  %205 = call i32 @cli_hex2int(i8 noundef signext %204)
  br label %206

206:                                              ; preds = %199, %198
  %207 = phi i32 [ 0, %198 ], [ %205, %199 ]
  %208 = shl i32 %207, 8
  %209 = or i32 %190, %208
  %210 = load ptr, ptr %3, align 8
  %211 = load i64, ptr %5, align 8
  %212 = add i64 %211, 4
  %213 = getelementptr inbounds i8, ptr %210, i64 %212
  %214 = load i8, ptr %213, align 1
  %215 = call i32 @cli_hex2int(i8 noundef signext %214)
  %216 = icmp slt i32 %215, 0
  br i1 %216, label %217, label %218

217:                                              ; preds = %206
  br label %225

218:                                              ; preds = %206
  %219 = load ptr, ptr %3, align 8
  %220 = load i64, ptr %5, align 8
  %221 = add i64 %220, 4
  %222 = getelementptr inbounds i8, ptr %219, i64 %221
  %223 = load i8, ptr %222, align 1
  %224 = call i32 @cli_hex2int(i8 noundef signext %223)
  br label %225

225:                                              ; preds = %218, %217
  %226 = phi i32 [ 0, %217 ], [ %224, %218 ]
  %227 = shl i32 %226, 4
  %228 = or i32 %209, %227
  %229 = load ptr, ptr %3, align 8
  %230 = load i64, ptr %5, align 8
  %231 = add i64 %230, 5
  %232 = getelementptr inbounds i8, ptr %229, i64 %231
  %233 = load i8, ptr %232, align 1
  %234 = call i32 @cli_hex2int(i8 noundef signext %233)
  %235 = or i32 %228, %234
  %236 = trunc i32 %235 to i16
  store i16 %236, ptr %9, align 2
  %237 = load i16, ptr %9, align 2
  %238 = load ptr, ptr %4, align 8
  %239 = load i64, ptr %6, align 8
  %240 = getelementptr inbounds i8, ptr %238, i64 %239
  %241 = call i64 @output_utf8(i16 noundef zeroext %237, ptr noundef %240)
  %242 = load i64, ptr %6, align 8
  %243 = add i64 %242, %241
  store i64 %243, ptr %6, align 8
  %244 = load i64, ptr %5, align 8
  %245 = add i64 %244, 5
  store i64 %245, ptr %5, align 8
  br label %257

246:                                              ; preds = %171
  br label %247

247:                                              ; preds = %246, %23
  %248 = load i8, ptr %8, align 1
  %249 = icmp ne i8 %248, 0
  br i1 %249, label %251, label %250

250:                                              ; preds = %247
  store i8 1, ptr %8, align 1
  br label %251

251:                                              ; preds = %250, %247
  %252 = load i8, ptr %8, align 1
  %253 = load ptr, ptr %4, align 8
  %254 = load i64, ptr %6, align 8
  %255 = add i64 %254, 1
  store i64 %255, ptr %6, align 8
  %256 = getelementptr inbounds i8, ptr %253, i64 %254
  store i8 %252, ptr %256, align 1
  br label %257

257:                                              ; preds = %251, %225
  %258 = load i64, ptr %5, align 8
  %259 = add i64 %258, 1
  store i64 %259, ptr %5, align 8
  br label %19

260:                                              ; preds = %19
  %261 = load ptr, ptr %4, align 8
  %262 = load i64, ptr %6, align 8
  %263 = add i64 %262, 1
  store i64 %263, ptr %6, align 8
  %264 = getelementptr inbounds i8, ptr %261, i64 %262
  store i8 0, ptr %264, align 1
  %265 = load ptr, ptr %4, align 8
  %266 = load i64, ptr %6, align 8
  %267 = call ptr @cli_max_realloc_or_free(ptr noundef %265, i64 noundef %266)
  store ptr %267, ptr %4, align 8
  %268 = load ptr, ptr %4, align 8
  store ptr %268, ptr %2, align 8
  br label %269

269:                                              ; preds = %260, %17
  %270 = load ptr, ptr %2, align 8
  ret ptr %270
}