; Function Attrs: nounwind uwtable
define ptr @cli_unescape(ptr nocapture noundef readonly %0) local_unnamed_addr #1 {
  %2 = tail call i64 @strlen(ptr noundef nonnull dereferenceable(1) %0) #26
  %3 = add i64 %2, 1
  %4 = tail call ptr @cli_max_malloc(i64 noundef %3) #27
  %.not = icmp eq ptr %4, null
  br i1 %.not, label %5, label %.preheader

.preheader:                                       ; preds = %1
  %.not84 = icmp eq i64 %2, 0
  br i1 %.not84, label %._crit_edge, label %.lr.ph

5:                                                ; preds = %1
  tail call void (ptr, ...) @cli_errmsg(ptr noundef nonnull @.str.7) #27
  br label %133

.lr.ph:                                           ; preds = %.preheader, %127
  %.06482 = phi i64 [ %.1, %127 ], [ 0, %.preheader ]
  %.06581 = phi i64 [ %128, %127 ], [ 0, %.preheader ]
  %6 = getelementptr inbounds i8, ptr %0, i64 %.06581
  %7 = load i8, ptr %6, align 1
  %8 = icmp eq i8 %7, 37
  br i1 %8, label %9, label %124

9:                                                ; preds = %.lr.ph
  %10 = add i64 %.06581, 5
  %.not71 = icmp ult i64 %10, %2
  br i1 %.not71, label %11, label %44

11:                                               ; preds = %9
  %12 = getelementptr i8, ptr %6, i64 1
  %13 = load i8, ptr %12, align 1
  %.not72 = icmp eq i8 %13, 117
  br i1 %.not72, label %14, label %44

14:                                               ; preds = %11
  %15 = tail call ptr @__ctype_b_loc() #29
  %16 = load ptr, ptr %15, align 8
  %17 = getelementptr i8, ptr %6, i64 2
  %18 = load i8, ptr %17, align 1
  %19 = sext i8 %18 to i64
  %20 = getelementptr inbounds i16, ptr %16, i64 %19
  %21 = load i16, ptr %20, align 2
  %22 = and i16 %21, 4096
  %.not73 = icmp eq i16 %22, 0
  br i1 %.not73, label %44, label %23

23:                                               ; preds = %14
  %24 = getelementptr i8, ptr %6, i64 3
  %25 = load i8, ptr %24, align 1
  %26 = sext i8 %25 to i64
  %27 = getelementptr inbounds i16, ptr %16, i64 %26
  %28 = load i16, ptr %27, align 2
  %29 = and i16 %28, 4096
  %.not74 = icmp eq i16 %29, 0
  br i1 %.not74, label %44, label %30

30:                                               ; preds = %23
  %31 = getelementptr i8, ptr %6, i64 4
  %32 = load i8, ptr %31, align 1
  %33 = sext i8 %32 to i64
  %34 = getelementptr inbounds i16, ptr %16, i64 %33
  %35 = load i16, ptr %34, align 2
  %36 = and i16 %35, 4096
  %.not75 = icmp eq i16 %36, 0
  br i1 %.not75, label %44, label %37

37:                                               ; preds = %30
  %38 = getelementptr inbounds i8, ptr %0, i64 %10
  %39 = load i8, ptr %38, align 1
  %40 = sext i8 %39 to i64
  %41 = getelementptr inbounds i16, ptr %16, i64 %40
  %42 = load i16, ptr %41, align 2
  %43 = and i16 %42, 4096
  %.not76 = icmp eq i16 %43, 0
  br i1 %.not76, label %44, label %73

44:                                               ; preds = %37, %30, %23, %14, %11, %9
  %45 = add i64 %.06581, 2
  %46 = icmp ult i64 %45, %2
  br i1 %46, label %47, label %124

47:                                               ; preds = %44
  %48 = tail call ptr @__ctype_b_loc() #29
  %49 = load ptr, ptr %48, align 8
  %50 = getelementptr i8, ptr %6, i64 1
  %51 = load i8, ptr %50, align 1
  %52 = sext i8 %51 to i64
  %53 = getelementptr inbounds i16, ptr %49, i64 %52
  %54 = load i16, ptr %53, align 2
  %55 = and i16 %54, 4096
  %.not77 = icmp eq i16 %55, 0
  br i1 %.not77, label %124, label %56

56:                                               ; preds = %47
  %57 = getelementptr inbounds i8, ptr %0, i64 %45
  %58 = load i8, ptr %57, align 1
  %59 = sext i8 %58 to i64
  %60 = getelementptr inbounds i16, ptr %49, i64 %59
  %61 = load i16, ptr %60, align 2
  %62 = and i16 %61, 4096
  %.not78 = icmp eq i16 %62, 0
  br i1 %.not78, label %124, label %63

63:                                               ; preds = %56
  %64 = zext i8 %51 to i64
  %65 = getelementptr inbounds [256 x i32], ptr @hex_chars, i64 0, i64 %64
  %66 = load i32, ptr %65, align 4
  %spec.select = tail call i32 @llvm.smax.i32(i32 %66, i32 0)
  %67 = shl i32 %spec.select, 4
  %68 = zext i8 %58 to i64
  %69 = getelementptr inbounds [256 x i32], ptr @hex_chars, i64 0, i64 %68
  %70 = load i32, ptr %69, align 4
  %71 = or i32 %67, %70
  %72 = trunc i32 %71 to i8
  br label %124

73:                                               ; preds = %37
  %74 = zext i8 %18 to i64
  %75 = getelementptr inbounds [256 x i32], ptr @hex_chars, i64 0, i64 %74
  %76 = load i32, ptr %75, align 4
  %spec.select80 = tail call i32 @llvm.smax.i32(i32 %76, i32 0)
  %77 = shl i32 %spec.select80, 12
  %78 = zext i8 %25 to i64
  %79 = getelementptr inbounds [256 x i32], ptr @hex_chars, i64 0, i64 %78
  %80 = load i32, ptr %79, align 4
  %81 = tail call i32 @llvm.smax.i32(i32 %80, i32 0)
  %82 = shl i32 %81, 8
  %83 = or i32 %82, %77
  %84 = zext i8 %32 to i64
  %85 = getelementptr inbounds [256 x i32], ptr @hex_chars, i64 0, i64 %84
  %86 = load i32, ptr %85, align 4
  %87 = tail call i32 @llvm.smax.i32(i32 %86, i32 0)
  %88 = shl i32 %87, 4
  %89 = zext i8 %39 to i64
  %90 = getelementptr inbounds [256 x i32], ptr @hex_chars, i64 0, i64 %89
  %91 = load i32, ptr %90, align 4
  %92 = or i32 %83, %91
  %93 = or i32 %92, %88
  %94 = trunc i32 %93 to i16
  %95 = getelementptr inbounds i8, ptr %4, i64 %.06482
  %.not.i = icmp eq i16 %94, 0
  br i1 %.not.i, label %96, label %97

96:                                               ; preds = %73
  store i8 1, ptr %95, align 1
  br label %output_utf8.exit

97:                                               ; preds = %73
  %98 = icmp ult i16 %94, 128
  br i1 %98, label %99, label %101

99:                                               ; preds = %97
  %100 = trunc i32 %93 to i8
  store i8 %100, ptr %95, align 1
  br label %output_utf8.exit

101:                                              ; preds = %97
  %102 = icmp ult i16 %94, 2048
  %103 = getelementptr inbounds i8, ptr %95, i64 1
  br i1 %102, label %104, label %111

104:                                              ; preds = %101
  %105 = lshr i32 %93, 6
  %106 = trunc i32 %105 to i8
  %107 = or disjoint i8 %106, -64
  store i8 %107, ptr %95, align 1
  %108 = trunc i32 %93 to i8
  %109 = and i8 %108, 63
  %110 = or disjoint i8 %109, -128
  store i8 %110, ptr %103, align 1
  br label %output_utf8.exit

111:                                              ; preds = %101
  %112 = lshr i16 %94, 12
  %113 = trunc nuw nsw i16 %112 to i8
  %114 = or disjoint i8 %113, -32
  store i8 %114, ptr %95, align 1
  %115 = lshr i32 %93, 6
  %116 = trunc i32 %115 to i8
  %117 = and i8 %116, 63
  %118 = or disjoint i8 %117, -128
  %119 = getelementptr inbounds i8, ptr %95, i64 2
  store i8 %118, ptr %103, align 1
  %120 = trunc i32 %93 to i8
  %121 = and i8 %120, 63
  %122 = or disjoint i8 %121, -128
  store i8 %122, ptr %119, align 1
  br label %output_utf8.exit

output_utf8.exit:                                 ; preds = %96, %99, %104, %111
  %.0.i = phi i64 [ 1, %99 ], [ 2, %104 ], [ 3, %111 ], [ 1, %96 ]
  %123 = add i64 %.0.i, %.06482
  br label %127

124:                                              ; preds = %63, %56, %47, %44, %.lr.ph
  %.166 = phi i64 [ %45, %63 ], [ %.06581, %56 ], [ %.06581, %47 ], [ %.06581, %44 ], [ %.06581, %.lr.ph ]
  %.063 = phi i8 [ %72, %63 ], [ 37, %56 ], [ 37, %47 ], [ 37, %44 ], [ %7, %.lr.ph ]
  %spec.store.select = tail call i8 @llvm.umax.i8(i8 %.063, i8 1)
  %125 = add i64 %.06482, 1
  %126 = getelementptr inbounds i8, ptr %4, i64 %.06482
  store i8 %spec.store.select, ptr %126, align 1
  br label %127

127:                                              ; preds = %124, %output_utf8.exit
  %.2 = phi i64 [ %.166, %124 ], [ %10, %output_utf8.exit ]
  %.1 = phi i64 [ %125, %124 ], [ %123, %output_utf8.exit ]
  %128 = add nuw i64 %.2, 1
  %129 = icmp ult i64 %128, %2
  br i1 %129, label %.lr.ph, label %._crit_edge

._crit_edge:                                      ; preds = %127, %.preheader
  %.064.lcssa = phi i64 [ 0, %.preheader ], [ %.1, %127 ]
  %130 = add i64 %.064.lcssa, 1
  %131 = getelementptr inbounds i8, ptr %4, i64 %.064.lcssa
  store i8 0, ptr %131, align 1
  %132 = tail call ptr @cli_max_realloc_or_free(ptr noundef nonnull %4, i64 noundef %130) #27
  br label %133

133:                                              ; preds = %._crit_edge, %5
  %.0 = phi ptr [ %132, %._crit_edge ], [ null, %5 ]
  ret ptr %.0
}